target datalayout = "e-m:e-p270:32:32-p271:32:32-p272:64:64-i64:64-i128:128-f80:128-n8:16:32:64-S128"
target triple = "x86_64-pc-linux-gnu"

%"class.ncnn::Mat" = type { ptr, ptr, i64, i32, ptr, i32, i32, i32, i32, i32, i64 }
%"class.ncnn::ParamDict" = type { ptr, ptr }

@stderr = external global ptr, align 8
@.str.1 = private unnamed_addr constant [2 x i8] c"\0A\00", align 1
@.str.2 = private unnamed_addr constant [133 x i8] c"copy_cut_border_3d parameter error, top: %d, bottom: %d, left: %d, right: %d, front: %d, behind: %d, src.w: %d, src.h: %d, src.d: %d\00", align 1

; Function Attrs: mustprogress uwtable
define hidden void @_ZN4ncnn18copy_cut_border_3dERKNS_3MatERS0_iiiiiiRKNS_6OptionE(ptr noundef nonnull align 8 dereferenceable(72) %0, ptr noundef nonnull align 8 dereferenceable(72) %1, i32 noundef %2, i32 noundef %3, i32 noundef %4, i32 noundef %5, i32 noundef %6, i32 noundef %7, ptr noundef nonnull align 8 dereferenceable(64) %8) #0 personality ptr @__gxx_personality_v0 {
  %10 = alloca ptr, align 8
  %11 = alloca ptr, align 8
  %12 = alloca i32, align 4
  %13 = alloca i32, align 4
  %14 = alloca i32, align 4
  %15 = alloca i32, align 4
  %16 = alloca i32, align 4
  %17 = alloca i32, align 4
  %18 = alloca ptr, align 8
  %19 = alloca ptr, align 8
  %20 = alloca %"class.ncnn::ParamDict", align 8
  %21 = alloca ptr, align 8
  %22 = alloca i32, align 4
  store ptr %0, ptr %10, align 8, !tbaa !4
  store ptr %1, ptr %11, align 8, !tbaa !4
  store i32 %2, ptr %12, align 4, !tbaa !25
  store i32 %3, ptr %13, align 4, !tbaa !25
  store i32 %4, ptr %14, align 4, !tbaa !25
  store i32 %5, ptr %15, align 4, !tbaa !25
  store i32 %6, ptr %16, align 4, !tbaa !25
  store i32 %7, ptr %17, align 4, !tbaa !25
  store ptr %8, ptr %18, align 8, !tbaa !51
  %23 = load i32, ptr %14, align 4, !tbaa !25
  %24 = load i32, ptr %15, align 4, !tbaa !25
  %25 = add nsw i32 %23, %24
  %26 = load ptr, ptr %10, align 8, !tbaa !4
  %27 = getelementptr inbounds nuw %"class.ncnn::Mat", ptr %26, i32 0, i32 6
  %28 = load i32, ptr %27, align 4, !tbaa !16
  %29 = icmp sgt i32 %25, %28
  br i1 %29, label %46, label %30

30:                                               ; preds = %9
  %31 = load i32, ptr %12, align 4, !tbaa !25
  %32 = load i32, ptr %13, align 4, !tbaa !25
  %33 = add nsw i32 %31, %32
  %34 = load ptr, ptr %10, align 8, !tbaa !4
  %35 = getelementptr inbounds nuw %"class.ncnn::Mat", ptr %34, i32 0, i32 7
  %36 = load i32, ptr %35, align 8, !tbaa !19
  %37 = icmp sgt i32 %33, %36
  br i1 %37, label %46, label %38

38:                                               ; preds = %30
  %39 = load i32, ptr %16, align 4, !tbaa !25
  %40 = load i32, ptr %17, align 4, !tbaa !25
  %41 = add nsw i32 %39, %40
  %42 = load ptr, ptr %10, align 8, !tbaa !4
  %43 = getelementptr inbounds nuw %"class.ncnn::Mat", ptr %42, i32 0, i32 8
  %44 = load i32, ptr %43, align 4, !tbaa !21
  %45 = icmp sgt i32 %41, %44
  br i1 %45, label %46, label %68

46:                                               ; preds = %38, %30, %9
  br label %47

47:                                               ; preds = %46
  %48 = load ptr, ptr @stderr, align 8, !tbaa !57
  %49 = load i32, ptr %12, align 4, !tbaa !25
  %50 = load i32, ptr %13, align 4, !tbaa !25
  %51 = load i32, ptr %14, align 4, !tbaa !25
  %52 = load i32, ptr %15, align 4, !tbaa !25
  %53 = load i32, ptr %16, align 4, !tbaa !25
  %54 = load i32, ptr %17, align 4, !tbaa !25
  %55 = load ptr, ptr %10, align 8, !tbaa !4
  %56 = getelementptr inbounds nuw %"class.ncnn::Mat", ptr %55, i32 0, i32 6
  %57 = load i32, ptr %56, align 4, !tbaa !16
  %58 = load ptr, ptr %10, align 8, !tbaa !4
  %59 = getelementptr inbounds nuw %"class.ncnn::Mat", ptr %58, i32 0, i32 7
  %60 = load i32, ptr %59, align 8, !tbaa !19
  %61 = load ptr, ptr %10, align 8, !tbaa !4
  %62 = getelementptr inbounds nuw %"class.ncnn::Mat", ptr %61, i32 0, i32 8
  %63 = load i32, ptr %62, align 4, !tbaa !21
  %64 = call i32 (ptr, ptr, ...) @fprintf(ptr noundef %48, ptr noundef @.str.2, i32 noundef %49, i32 noundef %50, i32 noundef %51, i32 noundef %52, i32 noundef %53, i32 noundef %54, i32 noundef %57, i32 noundef %60, i32 noundef %63) #9
  %65 = load ptr, ptr @stderr, align 8, !tbaa !57
  %66 = call i32 (ptr, ptr, ...) @fprintf(ptr noundef %65, ptr noundef @.str.1) #9
  br label %67

67:                                               ; preds = %47
  br label %138

68:                                               ; preds = %38
  call void @llvm.lifetime.start.p0(i64 8, ptr %19) #9
  %69 = call noundef ptr @_ZN4ncnn12create_layerEi(i32 noundef 7)
  store ptr %69, ptr %19, align 8, !tbaa !39
  call void @llvm.lifetime.start.p0(i64 16, ptr %20) #9
  call void @_ZN4ncnn9ParamDictC1Ev(ptr noundef nonnull align 8 dereferenceable(16) %20)
  %70 = load i32, ptr %14, align 4, !tbaa !25
  invoke void @_ZN4ncnn9ParamDict3setEii(ptr noundef nonnull align 8 dereferenceable(16) %20, i32 noundef 0, i32 noundef %70)
          to label %71 unwind label %139

71:                                               ; preds = %68
  %72 = load i32, ptr %12, align 4, !tbaa !25
  invoke void @_ZN4ncnn9ParamDict3setEii(ptr noundef nonnull align 8 dereferenceable(16) %20, i32 noundef 1, i32 noundef %72)
          to label %73 unwind label %139

73:                                               ; preds = %71
  %74 = load i32, ptr %16, align 4, !tbaa !25
  invoke void @_ZN4ncnn9ParamDict3setEii(ptr noundef nonnull align 8 dereferenceable(16) %20, i32 noundef 13, i32 noundef %74)
          to label %75 unwind label %139

75:                                               ; preds = %73
  invoke void @_ZN4ncnn9ParamDict3setEii(ptr noundef nonnull align 8 dereferenceable(16) %20, i32 noundef 2, i32 noundef 0)
          to label %76 unwind label %139

76:                                               ; preds = %75
  %77 = load ptr, ptr %10, align 8, !tbaa !4
  %78 = getelementptr inbounds nuw %"class.ncnn::Mat", ptr %77, i32 0, i32 6
  %79 = load i32, ptr %78, align 4, !tbaa !16
  %80 = load i32, ptr %14, align 4, !tbaa !25
  %81 = sub nsw i32 %79, %80
  %82 = load i32, ptr %15, align 4, !tbaa !25
  %83 = sub nsw i32 %81, %82
  invoke void @_ZN4ncnn9ParamDict3setEii(ptr noundef nonnull align 8 dereferenceable(16) %20, i32 noundef 3, i32 noundef %83)
          to label %84 unwind label %139

84:                                               ; preds = %76
  %85 = load ptr, ptr %10, align 8, !tbaa !4
  %86 = getelementptr inbounds nuw %"class.ncnn::Mat", ptr %85, i32 0, i32 7
  %87 = load i32, ptr %86, align 8, !tbaa !19
  %88 = load i32, ptr %12, align 4, !tbaa !25
  %89 = sub nsw i32 %87, %88
  %90 = load i32, ptr %13, align 4, !tbaa !25
  %91 = sub nsw i32 %89, %90
  invoke void @_ZN4ncnn9ParamDict3setEii(ptr noundef nonnull align 8 dereferenceable(16) %20, i32 noundef 4, i32 noundef %91)
          to label %92 unwind label %139

92:                                               ; preds = %84
  %93 = load ptr, ptr %10, align 8, !tbaa !4
  %94 = getelementptr inbounds nuw %"class.ncnn::Mat", ptr %93, i32 0, i32 8
  %95 = load i32, ptr %94, align 4, !tbaa !21
  %96 = load i32, ptr %16, align 4, !tbaa !25
  %97 = sub nsw i32 %95, %96
  %98 = load i32, ptr %17, align 4, !tbaa !25
  %99 = sub nsw i32 %97, %98
  invoke void @_ZN4ncnn9ParamDict3setEii(ptr noundef nonnull align 8 dereferenceable(16) %20, i32 noundef 14, i32 noundef %99)
          to label %100 unwind label %139

100:                                              ; preds = %92
  invoke void @_ZN4ncnn9ParamDict3setEii(ptr noundef nonnull align 8 dereferenceable(16) %20, i32 noundef 5, i32 noundef -233)
          to label %101 unwind label %139

101:                                              ; preds = %100
  %102 = load ptr, ptr %19, align 8, !tbaa !39
  %103 = load ptr, ptr %102, align 8, !tbaa !30
  %104 = getelementptr inbounds ptr, ptr %103, i64 2
  %105 = load ptr, ptr %104, align 8
  %106 = invoke noundef i32 %105(ptr noundef nonnull align 8 dereferenceable(208) %102, ptr noundef nonnull align 8 dereferenceable(16) %20)
          to label %107 unwind label %139

107:                                              ; preds = %101
  %108 = load ptr, ptr %19, align 8, !tbaa !39
  %109 = load ptr, ptr %18, align 8, !tbaa !51
  %110 = load ptr, ptr %108, align 8, !tbaa !30
  %111 = getelementptr inbounds ptr, ptr %110, i64 4
  %112 = load ptr, ptr %111, align 8
  %113 = invoke noundef i32 %112(ptr noundef nonnull align 8 dereferenceable(208) %108, ptr noundef nonnull align 8 dereferenceable(64) %109)
          to label %114 unwind label %139

114:                                              ; preds = %107
  %115 = load ptr, ptr %19, align 8, !tbaa !39
  %116 = load ptr, ptr %10, align 8, !tbaa !4
  %117 = load ptr, ptr %11, align 8, !tbaa !4
  %118 = load ptr, ptr %18, align 8, !tbaa !51
  %119 = load ptr, ptr %115, align 8, !tbaa !30
  %120 = getelementptr inbounds ptr, ptr %119, i64 7
  %121 = load ptr, ptr %120, align 8
  %122 = invoke noundef i32 %121(ptr noundef nonnull align 8 dereferenceable(208) %115, ptr noundef nonnull align 8 dereferenceable(72) %116, ptr noundef nonnull align 8 dereferenceable(72) %117, ptr noundef nonnull align 8 dereferenceable(64) %118)
          to label %123 unwind label %139

123:                                              ; preds = %114
  %124 = load ptr, ptr %19, align 8, !tbaa !39
  %125 = load ptr, ptr %18, align 8, !tbaa !51
  %126 = load ptr, ptr %124, align 8, !tbaa !30
  %127 = getelementptr inbounds ptr, ptr %126, i64 5
  %128 = load ptr, ptr %127, align 8
  %129 = invoke noundef i32 %128(ptr noundef nonnull align 8 dereferenceable(208) %124, ptr noundef nonnull align 8 dereferenceable(64) %125)
          to label %130 unwind label %139

130:                                              ; preds = %123
  %131 = load ptr, ptr %19, align 8, !tbaa !39
  %132 = icmp eq ptr %131, null
  br i1 %132, label %137, label %133

133:                                              ; preds = %130
  %134 = load ptr, ptr %131, align 8, !tbaa !30
  %135 = getelementptr inbounds ptr, ptr %134, i64 1
  %136 = load ptr, ptr %135, align 8
  call void %136(ptr noundef nonnull align 8 dereferenceable(208) %131) #9
  br label %137

137:                                              ; preds = %133, %130
  call void @_ZN4ncnn9ParamDictD1Ev(ptr noundef nonnull align 8 dereferenceable(16) %20) #9
  call void @llvm.lifetime.end.p0(i64 16, ptr %20) #9
  call void @llvm.lifetime.end.p0(i64 8, ptr %19) #9
  br label %138

138:                                              ; preds = %137, %67
  ret void

139:                                              ; preds = %123, %114, %107, %101, %100, %92, %84, %76, %75, %73, %71, %68
  %140 = landingpad { ptr, i32 }
          cleanup
  %141 = extractvalue { ptr, i32 } %140, 0
  store ptr %141, ptr %21, align 8
  %142 = extractvalue { ptr, i32 } %140, 1
  store i32 %142, ptr %22, align 4
  call void @_ZN4ncnn9ParamDictD1Ev(ptr noundef nonnull align 8 dereferenceable(16) %20) #9
  call void @llvm.lifetime.end.p0(i64 16, ptr %20) #9
  call void @llvm.lifetime.end.p0(i64 8, ptr %19) #9
  br label %143

143:                                              ; preds = %139
  %144 = load ptr, ptr %21, align 8
  %145 = load i32, ptr %22, align 4
  %146 = insertvalue { ptr, i32 } poison, ptr %144, 0
  %147 = insertvalue { ptr, i32 } %146, i32 %145, 1
  resume { ptr, i32 } %147
}