; Function Attrs: mustprogress uwtable
define hidden void @_ZN4ncnn18copy_cut_border_3dERKNS_3MatERS0_iiiiiiRKNS_6OptionE(ptr noundef nonnull align 8 dereferenceable(72) %0, ptr noundef nonnull align 8 dereferenceable(72) %1, i32 noundef %2, i32 noundef %3, i32 noundef %4, i32 noundef %5, i32 noundef %6, i32 noundef %7, ptr noundef nonnull align 8 dereferenceable(64) %8) local_unnamed_addr #0 personality ptr @__gxx_personality_v0 {
  %10 = alloca %"class.ncnn::ParamDict", align 8
  %11 = add nsw i32 %5, %4
  %12 = getelementptr inbounds nuw i8, ptr %0, i64 44
  %13 = load i32, ptr %12, align 4, !tbaa !16
  %14 = icmp sgt i32 %11, %13
  br i1 %14, label %._crit_edge, label %15

._crit_edge:                                      ; preds = %9
  %.phi.trans.insert = getelementptr inbounds nuw i8, ptr %0, i64 48
  %.pre = load i32, ptr %.phi.trans.insert, align 8, !tbaa !20
  br label %25

15:                                               ; preds = %9
  %16 = add nsw i32 %3, %2
  %17 = getelementptr inbounds nuw i8, ptr %0, i64 48
  %18 = load i32, ptr %17, align 8, !tbaa !20
  %19 = icmp sgt i32 %16, %18
  br i1 %19, label %25, label %20

20:                                               ; preds = %15
  %21 = add nsw i32 %7, %6
  %22 = getelementptr inbounds nuw i8, ptr %0, i64 52
  %23 = load i32, ptr %22, align 4, !tbaa !21
  %24 = icmp sgt i32 %21, %23
  br i1 %24, label %25, label %32

25:                                               ; preds = %._crit_edge, %15, %20
  %26 = phi i32 [ %.pre, %._crit_edge ], [ %18, %15 ], [ %18, %20 ]
  %27 = load ptr, ptr @stderr, align 8, !tbaa !48
  %28 = getelementptr inbounds nuw i8, ptr %0, i64 52
  %29 = load i32, ptr %28, align 4, !tbaa !21
  %30 = tail call i32 (ptr, ptr, ...) @fprintf(ptr noundef %27, ptr noundef nonnull @.str.2, i32 noundef %2, i32 noundef %3, i32 noundef %4, i32 noundef %5, i32 noundef %6, i32 noundef %7, i32 noundef %13, i32 noundef %26, i32 noundef %29) #14
  %31 = load ptr, ptr @stderr, align 8, !tbaa !48
  %fputc = tail call i32 @fputc(i32 10, ptr %31)
  br label %71

32:                                               ; preds = %20
  %33 = tail call noundef ptr @_ZN4ncnn12create_layerEi(i32 noundef 7)
  call void @llvm.lifetime.start.p0(i64 16, ptr nonnull %10) #12
  call void @_ZN4ncnn9ParamDictC1Ev(ptr noundef nonnull align 8 dereferenceable(16) %10)
  invoke void @_ZN4ncnn9ParamDict3setEii(ptr noundef nonnull align 8 dereferenceable(16) %10, i32 noundef 0, i32 noundef %4)
          to label %34 unwind label %72

34:                                               ; preds = %32
  invoke void @_ZN4ncnn9ParamDict3setEii(ptr noundef nonnull align 8 dereferenceable(16) %10, i32 noundef 1, i32 noundef %2)
          to label %35 unwind label %72

35:                                               ; preds = %34
  invoke void @_ZN4ncnn9ParamDict3setEii(ptr noundef nonnull align 8 dereferenceable(16) %10, i32 noundef 13, i32 noundef %6)
          to label %36 unwind label %72

36:                                               ; preds = %35
  invoke void @_ZN4ncnn9ParamDict3setEii(ptr noundef nonnull align 8 dereferenceable(16) %10, i32 noundef 2, i32 noundef 0)
          to label %37 unwind label %72

37:                                               ; preds = %36
  %38 = load i32, ptr %12, align 4, !tbaa !16
  %39 = sub i32 %38, %11
  invoke void @_ZN4ncnn9ParamDict3setEii(ptr noundef nonnull align 8 dereferenceable(16) %10, i32 noundef 3, i32 noundef %39)
          to label %40 unwind label %72

40:                                               ; preds = %37
  %41 = load i32, ptr %17, align 8, !tbaa !20
  %42 = sub i32 %41, %16
  invoke void @_ZN4ncnn9ParamDict3setEii(ptr noundef nonnull align 8 dereferenceable(16) %10, i32 noundef 4, i32 noundef %42)
          to label %43 unwind label %72

43:                                               ; preds = %40
  %44 = load i32, ptr %22, align 4, !tbaa !21
  %45 = sub i32 %44, %21
  invoke void @_ZN4ncnn9ParamDict3setEii(ptr noundef nonnull align 8 dereferenceable(16) %10, i32 noundef 14, i32 noundef %45)
          to label %46 unwind label %72

46:                                               ; preds = %43
  invoke void @_ZN4ncnn9ParamDict3setEii(ptr noundef nonnull align 8 dereferenceable(16) %10, i32 noundef 5, i32 noundef -233)
          to label %47 unwind label %72

47:                                               ; preds = %46
  %48 = load ptr, ptr %33, align 8, !tbaa !31
  %49 = getelementptr inbounds nuw i8, ptr %48, i64 16
  %50 = load ptr, ptr %49, align 8
  %51 = invoke noundef i32 %50(ptr noundef nonnull align 8 dereferenceable(208) %33, ptr noundef nonnull align 8 dereferenceable(16) %10)
          to label %52 unwind label %72

52:                                               ; preds = %47
  %53 = load ptr, ptr %33, align 8, !tbaa !31
  %54 = getelementptr inbounds nuw i8, ptr %53, i64 32
  %55 = load ptr, ptr %54, align 8
  %56 = invoke noundef i32 %55(ptr noundef nonnull align 8 dereferenceable(208) %33, ptr noundef nonnull align 8 dereferenceable(64) %8)
          to label %57 unwind label %72

57:                                               ; preds = %52
  %58 = load ptr, ptr %33, align 8, !tbaa !31
  %59 = getelementptr inbounds nuw i8, ptr %58, i64 56
  %60 = load ptr, ptr %59, align 8
  %61 = invoke noundef i32 %60(ptr noundef nonnull align 8 dereferenceable(208) %33, ptr noundef nonnull align 8 dereferenceable(72) %0, ptr noundef nonnull align 8 dereferenceable(72) %1, ptr noundef nonnull align 8 dereferenceable(64) %8)
          to label %62 unwind label %72

62:                                               ; preds = %57
  %63 = load ptr, ptr %33, align 8, !tbaa !31
  %64 = getelementptr inbounds nuw i8, ptr %63, i64 40
  %65 = load ptr, ptr %64, align 8
  %66 = invoke noundef i32 %65(ptr noundef nonnull align 8 dereferenceable(208) %33, ptr noundef nonnull align 8 dereferenceable(64) %8)
          to label %67 unwind label %72

67:                                               ; preds = %62
  %68 = load ptr, ptr %33, align 8, !tbaa !31
  %69 = getelementptr inbounds nuw i8, ptr %68, i64 8
  %70 = load ptr, ptr %69, align 8
  call void %70(ptr noundef nonnull align 8 dereferenceable(208) %33) #12
  call void @_ZN4ncnn9ParamDictD1Ev(ptr noundef nonnull align 8 dereferenceable(16) %10) #12
  call void @llvm.lifetime.end.p0(i64 16, ptr nonnull %10) #12
  br label %71

71:                                               ; preds = %67, %25
  ret void

72:                                               ; preds = %62, %57, %52, %47, %46, %43, %40, %37, %36, %35, %34, %32
  %73 = landingpad { ptr, i32 }
          cleanup
  call void @_ZN4ncnn9ParamDictD1Ev(ptr noundef nonnull align 8 dereferenceable(16) %10) #12
  call void @llvm.lifetime.end.p0(i64 16, ptr nonnull %10) #12
  resume { ptr, i32 } %73
}